target datalayout = "e-m:e-p270:32:32-p271:32:32-p272:64:64-i64:64-i128:128-f80:128-n8:16:32:64-S128"
target triple = "x86_64-pc-linux-gnu"

%struct.lxb_html_element = type { %struct.lxb_dom_element, ptr, ptr }
%struct.lxb_dom_element = type { %struct.lxb_dom_node, i64, i64, ptr, ptr, ptr, ptr, ptr, i32 }
%struct.lxb_dom_node = type { %struct.lxb_dom_event_target, i64, i64, i64, ptr, ptr, ptr, ptr, ptr, ptr, ptr, i32, i64 }
%struct.lxb_dom_event_target = type { ptr }
%struct.lxb_html_tree = type { ptr, ptr, ptr, ptr, ptr, ptr, ptr, %struct.lxb_html_tree_pending_table_t, ptr, i8, i8, i8, i8, i8, i8, ptr, ptr, ptr, i32, i64 }
%struct.lxb_html_tree_pending_table_t = type { ptr, i8 }
%struct.lexbor_array_t = type { ptr, i64, i64 }

@lxb_html_tree_active_formatting_marker_static = internal global %struct.lxb_html_element zeroinitializer, align 8

; Function Attrs: nounwind uwtable
define hidden void @lxb_html_tree_active_formatting_up_to_last_marker(ptr noundef %0) #0 {
  %2 = alloca ptr, align 8
  %3 = alloca ptr, align 8
  store ptr %0, ptr %2, align 8, !tbaa !4
  call void @llvm.lifetime.start.p0(i64 8, ptr %3) #6
  %4 = load ptr, ptr %2, align 8, !tbaa !4
  %5 = getelementptr inbounds nuw %struct.lxb_html_tree, ptr %4, i32 0, i32 5
  %6 = load ptr, ptr %5, align 8, !tbaa !9
  %7 = getelementptr inbounds nuw %struct.lexbor_array_t, ptr %6, i32 0, i32 0
  %8 = load ptr, ptr %7, align 8, !tbaa !19
  store ptr %8, ptr %3, align 8, !tbaa !21
  br label %9

9:                                                ; preds = %33, %1
  %10 = load ptr, ptr %2, align 8, !tbaa !4
  %11 = getelementptr inbounds nuw %struct.lxb_html_tree, ptr %10, i32 0, i32 5
  %12 = load ptr, ptr %11, align 8, !tbaa !9
  %13 = getelementptr inbounds nuw %struct.lexbor_array_t, ptr %12, i32 0, i32 2
  %14 = load i64, ptr %13, align 8, !tbaa !22
  %15 = icmp ne i64 %14, 0
  br i1 %15, label %16, label %34

16:                                               ; preds = %9
  %17 = load ptr, ptr %2, align 8, !tbaa !4
  %18 = getelementptr inbounds nuw %struct.lxb_html_tree, ptr %17, i32 0, i32 5
  %19 = load ptr, ptr %18, align 8, !tbaa !9
  %20 = getelementptr inbounds nuw %struct.lexbor_array_t, ptr %19, i32 0, i32 2
  %21 = load i64, ptr %20, align 8, !tbaa !22
  %22 = add i64 %21, -1
  store i64 %22, ptr %20, align 8, !tbaa !22
  %23 = load ptr, ptr %3, align 8, !tbaa !21
  %24 = load ptr, ptr %2, align 8, !tbaa !4
  %25 = getelementptr inbounds nuw %struct.lxb_html_tree, ptr %24, i32 0, i32 5
  %26 = load ptr, ptr %25, align 8, !tbaa !9
  %27 = getelementptr inbounds nuw %struct.lexbor_array_t, ptr %26, i32 0, i32 2
  %28 = load i64, ptr %27, align 8, !tbaa !22
  %29 = getelementptr inbounds nuw ptr, ptr %23, i64 %28
  %30 = load ptr, ptr %29, align 8, !tbaa !21
  %31 = icmp eq ptr %30, @lxb_html_tree_active_formatting_marker_static
  br i1 %31, label %32, label %33

32:                                               ; preds = %16
  br label %34

33:                                               ; preds = %16
  br label %9

34:                                               ; preds = %32, %9
  call void @llvm.lifetime.end.p0(i64 8, ptr %3) #6
  ret void
}