; Function Attrs: nofree norecurse nosync nounwind memory(readwrite, inaccessiblemem: none) uwtable
define hidden void @lxb_html_tree_active_formatting_up_to_last_marker(ptr noundef readonly captures(none) %0) local_unnamed_addr #1 {
  %2 = getelementptr inbounds nuw i8, ptr %0, i64 40
  %3 = load ptr, ptr %2, align 8, !tbaa !4
  %4 = load ptr, ptr %3, align 8, !tbaa !17
  %5 = getelementptr inbounds nuw i8, ptr %3, i64 16
  %.promoted = load i64, ptr %5, align 8, !tbaa !19
  br label %6

6:                                                ; preds = %8, %1
  %7 = phi i64 [ %9, %8 ], [ %.promoted, %1 ]
  %.not = icmp eq i64 %7, 0
  br i1 %.not, label %13, label %8

8:                                                ; preds = %6
  %9 = add i64 %7, -1
  store i64 %9, ptr %5, align 8, !tbaa !19
  %10 = getelementptr inbounds nuw ptr, ptr %4, i64 %9
  %11 = load ptr, ptr %10, align 8, !tbaa !20
  %12 = icmp eq ptr %11, @lxb_html_tree_active_formatting_marker_static
  br i1 %12, label %13, label %6

13:                                               ; preds = %8, %6
  ret void
}